; Function Attrs: mustprogress uwtable
define void @_ZN6google8protobuf8compiler20CodeGeneratorRequest12InternalSwapEPS2_(ptr noundef nonnull align 8 dereferenceable(112) %this, ptr noalias noundef %other) local_unnamed_addr #3 align 2 {
entry:
  %_internal_metadata_.i = getelementptr inbounds i8, ptr %this, i64 8
  %0 = load i64, ptr %_internal_metadata_.i, align 8
  %_internal_metadata_3 = getelementptr inbounds i8, ptr %other, i64 8
  %1 = load i64, ptr %_internal_metadata_3, align 8
  store i64 %1, ptr %_internal_metadata_.i, align 8
  store i64 %0, ptr %_internal_metadata_3, align 8
  %2 = getelementptr inbounds i8, ptr %this, i64 16
  %3 = getelementptr inbounds i8, ptr %other, i64 16
  %4 = load i32, ptr %2, align 8
  %5 = load i32, ptr %3, align 4
  store i32 %5, ptr %2, align 8
  store i32 %4, ptr %3, align 4
  %file_to_generate_ = getelementptr inbounds i8, ptr %this, i64 24
  %file_to_generate_7 = getelementptr inbounds i8, ptr %other, i64 24
  tail call void @_ZN6google8protobuf8internal7memswapILm16EEEvPcS3_(ptr noundef nonnull %file_to_generate_, ptr noundef nonnull %file_to_generate_7)
  %proto_file_ = getelementptr inbounds i8, ptr %this, i64 48
  %proto_file_8 = getelementptr inbounds i8, ptr %other, i64 48
  tail call void @_ZN6google8protobuf8internal7memswapILm16EEEvPcS3_(ptr noundef nonnull %proto_file_, ptr noundef nonnull %proto_file_8)
  %source_file_descriptors_ = getelementptr inbounds i8, ptr %this, i64 72
  %source_file_descriptors_9 = getelementptr inbounds i8, ptr %other, i64 72
  tail call void @_ZN6google8protobuf8internal7memswapILm16EEEvPcS3_(ptr noundef nonnull %source_file_descriptors_, ptr noundef nonnull %source_file_descriptors_9)
  %parameter_ = getelementptr inbounds i8, ptr %this, i64 96
  %parameter_10 = getelementptr inbounds i8, ptr %other, i64 96
  %6 = load i64, ptr %parameter_, align 8
  %compiler_version_ = getelementptr inbounds i8, ptr %this, i64 104
  %compiler_version_11 = getelementptr inbounds i8, ptr %other, i64 104
  %7 = load ptr, ptr %compiler_version_, align 8
  %8 = load <2 x ptr>, ptr %parameter_10, align 8
  store i64 %6, ptr %parameter_10, align 8
  store <2 x ptr> %8, ptr %parameter_, align 8
  store ptr %7, ptr %compiler_version_11, align 8
  ret void
}